target datalayout = "e-m:e-p270:32:32-p271:32:32-p272:64:64-i64:64-i128:128-f80:128-n8:16:32:64-S128"
target triple = "x86_64-pc-linux-gnu"

%struct.lexbor_avl = type { ptr, ptr }

; Function Attrs: nounwind uwtable
define hidden ptr @lexbor_avl_destroy(ptr noundef %0, i1 noundef zeroext %1) #0 {
  %3 = alloca ptr, align 8
  %4 = alloca ptr, align 8
  %5 = alloca i8, align 1
  store ptr %0, ptr %4, align 8
  %6 = zext i1 %1 to i8
  store i8 %6, ptr %5, align 1
  %7 = load ptr, ptr %4, align 8
  %8 = icmp eq ptr %7, null
  br i1 %8, label %9, label %10

9:                                                ; preds = %2
  store ptr null, ptr %3, align 8
  br label %24

10:                                               ; preds = %2
  %11 = load ptr, ptr %4, align 8
  %12 = getelementptr inbounds %struct.lexbor_avl, ptr %11, i32 0, i32 0
  %13 = load ptr, ptr %12, align 8
  %14 = call ptr @lexbor_dobject_destroy(ptr noundef %13, i1 noundef zeroext true)
  %15 = load ptr, ptr %4, align 8
  %16 = getelementptr inbounds %struct.lexbor_avl, ptr %15, i32 0, i32 0
  store ptr %14, ptr %16, align 8
  %17 = load i8, ptr %5, align 1
  %18 = trunc i8 %17 to i1
  br i1 %18, label %19, label %22

19:                                               ; preds = %10
  %20 = load ptr, ptr %4, align 8
  %21 = call ptr @lexbor_free(ptr noundef %20)
  store ptr %21, ptr %3, align 8
  br label %24

22:                                               ; preds = %10
  %23 = load ptr, ptr %4, align 8
  store ptr %23, ptr %3, align 8
  br label %24

24:                                               ; preds = %22, %19, %9
  %25 = load ptr, ptr %3, align 8
  ret ptr %25
}